target datalayout = "e-m:e-p270:32:32-p271:32:32-p272:64:64-i64:64-i128:128-f80:128-n8:16:32:64-S128"
target triple = "x86_64-pc-linux-gnu"

%class.ciTypeFlow = type { ptr, ptr, i32, i8, ptr, ptr, ptr, ptr, ptr, i32, ptr, ptr }
%"class.ciTypeFlow::StateVector" = type { ptr, i32, i32, ptr, i32, i32, %"class.ciTypeFlow::LocalSet" }
%"class.ciTypeFlow::LocalSet" = type { i64 }
%class.ciMetadata = type { %class.ciBaseObject.base, ptr }
%class.ciBaseObject.base = type <{ ptr, i32 }>
%class.ciFlags = type <{ i32, i8, i8, [2 x i8] }>
%class.ciMethod = type { %class.ciMetadata, %class.ciFlags, ptr, ptr, ptr, ptr, ptr, i32, i32, i32, i32, i32, i32, i32, i32, i32, i8, i8, i8, i8, i8, i8, i8, i8, i8, ptr, ptr, ptr, ptr, ptr }

; Function Attrs: mustprogress nounwind uwtable
define linkonce_odr hidden void @_ZNK8ciMethod15check_is_loadedEv(ptr noundef nonnull align 8 dereferenceable(160) %0) #1 comdat align 2 {
  %2 = alloca ptr, align 8
  store ptr %0, ptr %2, align 8
  ret void
}

; Function Attrs: mustprogress nounwind uwtable
define linkonce_odr hidden noundef i32 @_ZNK8ciMethod10max_localsEv(ptr noundef nonnull align 8 dereferenceable(160) %0) #1 comdat align 2 {
  %2 = alloca ptr, align 8
  store ptr %0, ptr %2, align 8
  %3 = load ptr, ptr %2, align 8
  call void @_ZNK8ciMethod15check_is_loadedEv(ptr noundef nonnull align 8 dereferenceable(160) %3)
  %4 = getelementptr inbounds %class.ciMethod, ptr %3, i32 0, i32 9
  %5 = load i32, ptr %4, align 8
  ret i32 %5
}

; Function Attrs: mustprogress nounwind uwtable
define linkonce_odr hidden noundef ptr @_ZNK10ciTypeFlow6methodEv(ptr noundef nonnull align 8 dereferenceable(88) %0) #1 comdat align 2 {
  %2 = alloca ptr, align 8
  store ptr %0, ptr %2, align 8
  %3 = load ptr, ptr %2, align 8
  %4 = getelementptr inbounds %class.ciTypeFlow, ptr %3, i32 0, i32 1
  %5 = load ptr, ptr %4, align 8
  ret ptr %5
}

; Function Attrs: mustprogress nounwind uwtable
define linkonce_odr hidden noundef i32 @_ZNK10ciTypeFlow10max_localsEv(ptr noundef nonnull align 8 dereferenceable(88) %0) #1 comdat align 2 {
  %2 = alloca ptr, align 8
  store ptr %0, ptr %2, align 8
  %3 = load ptr, ptr %2, align 8
  %4 = call noundef ptr @_ZNK10ciTypeFlow6methodEv(ptr noundef nonnull align 8 dereferenceable(88) %3)
  %5 = call noundef i32 @_ZNK8ciMethod10max_localsEv(ptr noundef nonnull align 8 dereferenceable(160) %4)
  ret i32 %5
}

; Function Attrs: mustprogress nounwind uwtable
define linkonce_odr hidden noundef ptr @_ZNK10ciTypeFlow11StateVector5outerEv(ptr noundef nonnull align 8 dereferenceable(40) %0) #1 comdat align 2 {
  %2 = alloca ptr, align 8
  store ptr %0, ptr %2, align 8
  %3 = load ptr, ptr %2, align 8
  %4 = getelementptr inbounds %"class.ciTypeFlow::StateVector", ptr %3, i32 0, i32 3
  %5 = load ptr, ptr %4, align 8
  ret ptr %5
}

; Function Attrs: mustprogress nounwind uwtable
define linkonce_odr hidden noundef i32 @_ZNK10ciTypeFlow11StateVector5stackEi(ptr noundef nonnull align 8 dereferenceable(40) %0, i32 noundef %1) #1 comdat align 2 {
  %3 = alloca ptr, align 8
  %4 = alloca i32, align 4
  store ptr %0, ptr %3, align 8
  store i32 %1, ptr %4, align 4
  %5 = load ptr, ptr %3, align 8
  %6 = call noundef ptr @_ZNK10ciTypeFlow11StateVector5outerEv(ptr noundef nonnull align 8 dereferenceable(40) %5)
  %7 = call noundef i32 @_ZNK10ciTypeFlow10max_localsEv(ptr noundef nonnull align 8 dereferenceable(88) %6)
  %8 = load i32, ptr %4, align 4
  %9 = add nsw i32 %7, %8
  ret i32 %9
}

; Function Attrs: mustprogress nounwind uwtable
define linkonce_odr hidden noundef i32 @_ZNK10ciTypeFlow11StateVector10stack_sizeEv(ptr noundef nonnull align 8 dereferenceable(40) %0) #1 comdat align 2 {
  %2 = alloca ptr, align 8
  store ptr %0, ptr %2, align 8
  %3 = load ptr, ptr %2, align 8
  %4 = getelementptr inbounds %"class.ciTypeFlow::StateVector", ptr %3, i32 0, i32 1
  %5 = load i32, ptr %4, align 8
  ret i32 %5
}

; Function Attrs: mustprogress nounwind uwtable
define linkonce_odr hidden void @_ZN10ciTypeFlow11StateVector11set_type_atENS_4CellEP6ciType(ptr noundef nonnull align 8 dereferenceable(40) %0, i32 noundef %1, ptr noundef %2) #1 comdat align 2 {
  %4 = alloca ptr, align 8
  %5 = alloca i32, align 4
  %6 = alloca ptr, align 8
  store ptr %0, ptr %4, align 8
  store i32 %1, ptr %5, align 4
  store ptr %2, ptr %6, align 8
  %7 = load ptr, ptr %4, align 8
  %8 = load ptr, ptr %6, align 8
  %9 = getelementptr inbounds %"class.ciTypeFlow::StateVector", ptr %7, i32 0, i32 0
  %10 = load ptr, ptr %9, align 8
  %11 = load i32, ptr %5, align 4
  %12 = zext i32 %11 to i64
  %13 = getelementptr inbounds ptr, ptr %10, i64 %12
  store ptr %8, ptr %13, align 8
  ret void
}

; Function Attrs: mustprogress nounwind uwtable
define linkonce_odr hidden noundef i32 @_ZNK10ciTypeFlow11StateVector3tosEv(ptr noundef nonnull align 8 dereferenceable(40) %0) #1 comdat align 2 {
  %2 = alloca ptr, align 8
  store ptr %0, ptr %2, align 8
  %3 = load ptr, ptr %2, align 8
  %4 = call noundef i32 @_ZNK10ciTypeFlow11StateVector10stack_sizeEv(ptr noundef nonnull align 8 dereferenceable(40) %3)
  %5 = sub nsw i32 %4, 1
  %6 = call noundef i32 @_ZNK10ciTypeFlow11StateVector5stackEi(ptr noundef nonnull align 8 dereferenceable(40) %3, i32 noundef %5)
  ret i32 %6
}

; Function Attrs: mustprogress nounwind uwtable
define linkonce_odr hidden void @_ZN10ciTypeFlow11StateVector15set_type_at_tosEP6ciType(ptr noundef nonnull align 8 dereferenceable(40) %0, ptr noundef %1) #1 comdat align 2 {
  %3 = alloca ptr, align 8
  %4 = alloca ptr, align 8
  store ptr %0, ptr %3, align 8
  store ptr %1, ptr %4, align 8
  %5 = load ptr, ptr %3, align 8
  %6 = call noundef i32 @_ZNK10ciTypeFlow11StateVector3tosEv(ptr noundef nonnull align 8 dereferenceable(40) %5)
  %7 = load ptr, ptr %4, align 8
  call void @_ZN10ciTypeFlow11StateVector11set_type_atENS_4CellEP6ciType(ptr noundef nonnull align 8 dereferenceable(40) %5, i32 noundef %6, ptr noundef %7)
  ret void
}

; Function Attrs: mustprogress nounwind uwtable
define linkonce_odr hidden noundef ptr @_ZN10ciTypeFlow11StateVector9null_typeEv() #1 comdat align 2 {
  %1 = call noundef ptr @_ZN6ciType4makeE9BasicType(i8 noundef zeroext 8)
  ret ptr %1
}

; Function Attrs: mustprogress nounwind uwtable
define linkonce_odr hidden void @_ZN10ciTypeFlow11StateVector4pushEP6ciType(ptr noundef nonnull align 8 dereferenceable(40) %0, ptr noundef %1) #1 comdat align 2 {
  %3 = alloca ptr, align 8
  %4 = alloca ptr, align 8
  store ptr %0, ptr %3, align 8
  store ptr %1, ptr %4, align 8
  %5 = load ptr, ptr %3, align 8
  %6 = getelementptr inbounds %"class.ciTypeFlow::StateVector", ptr %5, i32 0, i32 1
  %7 = load i32, ptr %6, align 8
  %8 = add nsw i32 %7, 1
  store i32 %8, ptr %6, align 8
  %9 = load ptr, ptr %4, align 8
  call void @_ZN10ciTypeFlow11StateVector15set_type_at_tosEP6ciType(ptr noundef nonnull align 8 dereferenceable(40) %5, ptr noundef %9)
  ret void
}

; Function Attrs: mustprogress nounwind uwtable
define linkonce_odr hidden void @_ZN10ciTypeFlow11StateVector9push_nullEv(ptr noundef nonnull align 8 dereferenceable(40) %0) #1 comdat align 2 {
  %2 = alloca ptr, align 8
  store ptr %0, ptr %2, align 8
  %3 = load ptr, ptr %2, align 8
  %4 = call noundef ptr @_ZN10ciTypeFlow11StateVector9null_typeEv()
  call void @_ZN10ciTypeFlow11StateVector4pushEP6ciType(ptr noundef nonnull align 8 dereferenceable(40) %3, ptr noundef %4)
  ret void
}

; Function Attrs: mustprogress nounwind uwtable
define linkonce_odr hidden noundef zeroext i1 @_ZNK10ciMetadata9is_loadedEv(ptr noundef nonnull align 8 dereferenceable(24) %0) #1 comdat align 2 {
  %2 = alloca ptr, align 8
  store ptr %0, ptr %2, align 8
  %3 = load ptr, ptr %2, align 8
  %4 = getelementptr inbounds %class.ciMetadata, ptr %3, i32 0, i32 1
  %5 = load ptr, ptr %4, align 8
  %6 = icmp ne ptr %5, null
  br i1 %6, label %12, label %7

7:                                                ; preds = %1
  %8 = load ptr, ptr %3, align 8
  %9 = getelementptr inbounds ptr, ptr %8, i64 4
  %10 = load ptr, ptr %9, align 8
  %11 = call noundef zeroext i1 %10(ptr noundef nonnull align 8 dereferenceable(24) %3)
  br label %12

12:                                               ; preds = %7, %1
  %13 = phi i1 [ true, %1 ], [ %11, %7 ]
  ret i1 %13
}

; Function Attrs: mustprogress nounwind uwtable
define linkonce_odr hidden void @_ZN10ciTypeFlow11StateVector3popEv(ptr noundef nonnull align 8 dereferenceable(40) %0) #1 comdat align 2 {
  %2 = alloca ptr, align 8
  store ptr %0, ptr %2, align 8
  %3 = load ptr, ptr %2, align 8
  %4 = getelementptr inbounds %"class.ciTypeFlow::StateVector", ptr %3, i32 0, i32 1
  %5 = load i32, ptr %4, align 8
  %6 = add nsw i32 %5, -1
  store i32 %6, ptr %4, align 8
  ret void
}

; Function Attrs: mustprogress nounwind uwtable
define linkonce_odr hidden void @_ZN10ciTypeFlow11StateVector11push_objectEP7ciKlass(ptr noundef nonnull align 8 dereferenceable(40) %0, ptr noundef %1) #1 comdat align 2 {
  %3 = alloca ptr, align 8
  %4 = alloca ptr, align 8
  store ptr %0, ptr %3, align 8
  store ptr %1, ptr %4, align 8
  %5 = load ptr, ptr %3, align 8
  %6 = load ptr, ptr %4, align 8
  call void @_ZN10ciTypeFlow11StateVector4pushEP6ciType(ptr noundef nonnull align 8 dereferenceable(40) %5, ptr noundef %6)
  ret void
}

; Function Attrs: mustprogress nounwind uwtable
define hidden void @_ZN10ciTypeFlow11StateVector14do_null_assertEP7ciKlass(ptr noundef nonnull align 8 dereferenceable(40) %0, ptr noundef %1) #1 align 2 {
  %3 = alloca ptr, align 8
  %4 = alloca ptr, align 8
  store ptr %0, ptr %3, align 8
  store ptr %1, ptr %4, align 8
  %5 = load ptr, ptr %3, align 8
  %6 = load ptr, ptr %4, align 8
  %7 = call noundef zeroext i1 @_ZNK10ciMetadata9is_loadedEv(ptr noundef nonnull align 8 dereferenceable(24) %6)
  br i1 %7, label %8, label %10

8:                                                ; preds = %2
  %9 = load ptr, ptr %4, align 8
  call void @_ZN10ciTypeFlow11StateVector11push_objectEP7ciKlass(ptr noundef nonnull align 8 dereferenceable(40) %5, ptr noundef %9)
  br label %11

10:                                               ; preds = %2
  call void @_ZN10ciTypeFlow11StateVector9push_nullEv(ptr noundef nonnull align 8 dereferenceable(40) %5)
  br label %11

11:                                               ; preds = %10, %8
  ret void
}

; Function Attrs: mustprogress nounwind uwtable
define linkonce_odr hidden void @_ZN10ciTypeFlow11StateVector10pop_objectEv(ptr noundef nonnull align 8 dereferenceable(40) %0) #1 comdat align 2 {
  %2 = alloca ptr, align 8
  store ptr %0, ptr %2, align 8
  %3 = load ptr, ptr %2, align 8
  call void @_ZN10ciTypeFlow11StateVector3popEv(ptr noundef nonnull align 8 dereferenceable(40) %3)
  ret void
}

; Function Attrs: mustprogress nounwind uwtable
define hidden void @_ZN10ciTypeFlow11StateVector12do_checkcastEP16ciBytecodeStream(ptr noundef nonnull align 8 dereferenceable(40) %0, ptr noundef %1) #1 align 2 {
  %3 = alloca ptr, align 8
  %4 = alloca ptr, align 8
  %5 = alloca i8, align 1
  %6 = alloca ptr, align 8
  store ptr %0, ptr %3, align 8
  store ptr %1, ptr %4, align 8
  %7 = load ptr, ptr %3, align 8
  %8 = load ptr, ptr %4, align 8
  %9 = call noundef ptr @_ZN16ciBytecodeStream9get_klassERb(ptr noundef nonnull align 8 dereferenceable(72) %8, ptr noundef nonnull align 1 dereferenceable(1) %5)
  store ptr %9, ptr %6, align 8
  %10 = load i8, ptr %5, align 1
  %11 = trunc i8 %10 to i1
  br i1 %11, label %14, label %12

12:                                               ; preds = %2
  call void @_ZN10ciTypeFlow11StateVector10pop_objectEv(ptr noundef nonnull align 8 dereferenceable(40) %7)
  %13 = load ptr, ptr %6, align 8
  call void @_ZN10ciTypeFlow11StateVector14do_null_assertEP7ciKlass(ptr noundef nonnull align 8 dereferenceable(40) %7, ptr noundef %13)
  br label %16

14:                                               ; preds = %2
  call void @_ZN10ciTypeFlow11StateVector10pop_objectEv(ptr noundef nonnull align 8 dereferenceable(40) %7)
  %15 = load ptr, ptr %6, align 8
  call void @_ZN10ciTypeFlow11StateVector11push_objectEP7ciKlass(ptr noundef nonnull align 8 dereferenceable(40) %7, ptr noundef %15)
  br label %16

16:                                               ; preds = %14, %12
  ret void
}