; Function Attrs: mustprogress nounwind uwtable
define hidden void @_ZN10ciTypeFlow11StateVector12do_checkcastEP16ciBytecodeStream(ptr nocapture noundef nonnull align 8 dereferenceable(40) %0, ptr noundef nonnull %1) local_unnamed_addr #0 align 2 {
  %3 = alloca i8, align 1
  %4 = call noundef ptr @_ZN16ciBytecodeStream9get_klassERb(ptr noundef nonnull align 8 dereferenceable(72) %1, ptr noundef nonnull align 1 dereferenceable(1) %3) #14
  %5 = load i8, ptr %3, align 1
  %6 = trunc i8 %5 to i1
  %7 = getelementptr inbounds i8, ptr %0, i64 8
  %8 = load i32, ptr %7, align 8
  %9 = add nsw i32 %8, -1
  br i1 %6, label %28, label %10

10:                                               ; preds = %2
  store i32 %9, ptr %7, align 8
  %11 = getelementptr inbounds i8, ptr %4, i64 16
  %12 = load ptr, ptr %11, align 8
  %.not.i.i = icmp eq ptr %12, null
  br i1 %.not.i.i, label %_ZNK10ciMetadata9is_loadedEv.exit.i, label %_ZN10ciTypeFlow11StateVector14do_null_assertEP7ciKlass.exit

_ZNK10ciMetadata9is_loadedEv.exit.i:              ; preds = %10
  %13 = load ptr, ptr %4, align 8
  %14 = getelementptr inbounds i8, ptr %13, i64 32
  %15 = load ptr, ptr %14, align 8
  %16 = call noundef zeroext i1 %15(ptr noundef nonnull align 8 dereferenceable(24) %4) #14
  br i1 %16, label %_ZN10ciTypeFlow11StateVector14do_null_assertEP7ciKlass.exit, label %17

17:                                               ; preds = %_ZNK10ciMetadata9is_loadedEv.exit.i
  %18 = call noundef ptr @_ZN6ciType4makeE9BasicType(i8 noundef zeroext 8) #14
  br label %_ZN10ciTypeFlow11StateVector14do_null_assertEP7ciKlass.exit

_ZN10ciTypeFlow11StateVector14do_null_assertEP7ciKlass.exit: ; preds = %10, %_ZNK10ciMetadata9is_loadedEv.exit.i, %17
  %.sink.i = phi ptr [ %18, %17 ], [ %4, %10 ], [ %4, %_ZNK10ciMetadata9is_loadedEv.exit.i ]
  %19 = load i32, ptr %7, align 8
  %20 = add nsw i32 %19, 1
  store i32 %20, ptr %7, align 8
  %21 = getelementptr inbounds i8, ptr %0, i64 16
  %22 = load ptr, ptr %21, align 8
  %23 = getelementptr inbounds i8, ptr %22, i64 8
  %24 = load ptr, ptr %23, align 8
  %25 = getelementptr inbounds i8, ptr %24, i64 80
  %26 = load i32, ptr %25, align 8
  %27 = add nsw i32 %26, %19
  br label %36

28:                                               ; preds = %2
  %29 = getelementptr inbounds i8, ptr %0, i64 16
  %30 = load ptr, ptr %29, align 8
  %31 = getelementptr inbounds i8, ptr %30, i64 8
  %32 = load ptr, ptr %31, align 8
  %33 = getelementptr inbounds i8, ptr %32, i64 80
  %34 = load i32, ptr %33, align 8
  %35 = add nsw i32 %9, %34
  br label %36

36:                                               ; preds = %28, %_ZN10ciTypeFlow11StateVector14do_null_assertEP7ciKlass.exit
  %.sink7 = phi i32 [ %35, %28 ], [ %27, %_ZN10ciTypeFlow11StateVector14do_null_assertEP7ciKlass.exit ]
  %.sink = phi ptr [ %4, %28 ], [ %.sink.i, %_ZN10ciTypeFlow11StateVector14do_null_assertEP7ciKlass.exit ]
  %37 = load ptr, ptr %0, align 8
  %38 = zext i32 %.sink7 to i64
  %39 = getelementptr inbounds ptr, ptr %37, i64 %38
  store ptr %.sink, ptr %39, align 8
  ret void
}